; Function Attrs: nounwind uwtable
define ptr @l___private_Lean_Environment_0__Lean_VisibilityMap_get___rarg___boxed(ptr noundef %0, ptr noundef %1) #1 {
  %3 = getelementptr inbounds nuw i8, ptr %1, i64 72
  %4 = load i8, ptr %3, align 1, !tbaa !18
  %5 = icmp eq i8 %4, 0
  br i1 %5, label %6, label %17

6:                                                ; preds = %2
  %7 = getelementptr inbounds nuw i8, ptr %0, i64 8
  %8 = load ptr, ptr %7, align 8, !tbaa !9
  %9 = ptrtoint ptr %8 to i64
  %10 = and i64 %9, 1
  %.not12.i = icmp eq i64 %10, 0
  br i1 %.not12.i, label %11, label %l___private_Lean_Environment_0__Lean_VisibilityMap_get___rarg.exit

11:                                               ; preds = %6
  %.val.i.i = load i32, ptr %8, align 4, !tbaa !4
  %12 = icmp sgt i32 %.val.i.i, 0
  br i1 %12, label %13, label %15, !prof !11

13:                                               ; preds = %11
  %14 = add nuw i32 %.val.i.i, 1
  store i32 %14, ptr %8, align 4, !tbaa !4
  br label %l___private_Lean_Environment_0__Lean_VisibilityMap_get___rarg.exit

15:                                               ; preds = %11
  %.not.i.i = icmp eq i32 %.val.i.i, 0
  br i1 %.not.i.i, label %l___private_Lean_Environment_0__Lean_VisibilityMap_get___rarg.exit, label %16

16:                                               ; preds = %15
  tail call void @lean_inc_ref_cold(ptr noundef nonnull %8) #10
  br label %l___private_Lean_Environment_0__Lean_VisibilityMap_get___rarg.exit

17:                                               ; preds = %2
  %18 = getelementptr inbounds nuw i8, ptr %0, i64 16
  %19 = load ptr, ptr %18, align 8, !tbaa !9
  %20 = ptrtoint ptr %19 to i64
  %21 = and i64 %20, 1
  %.not.i8 = icmp eq i64 %21, 0
  br i1 %.not.i8, label %22, label %l___private_Lean_Environment_0__Lean_VisibilityMap_get___rarg.exit

22:                                               ; preds = %17
  %.val.i9.i = load i32, ptr %19, align 4, !tbaa !4
  %23 = icmp sgt i32 %.val.i9.i, 0
  br i1 %23, label %24, label %26, !prof !11

24:                                               ; preds = %22
  %25 = add nuw i32 %.val.i9.i, 1
  store i32 %25, ptr %19, align 4, !tbaa !4
  br label %l___private_Lean_Environment_0__Lean_VisibilityMap_get___rarg.exit

26:                                               ; preds = %22
  %.not.i10.i = icmp eq i32 %.val.i9.i, 0
  br i1 %.not.i10.i, label %l___private_Lean_Environment_0__Lean_VisibilityMap_get___rarg.exit, label %27

27:                                               ; preds = %26
  tail call void @lean_inc_ref_cold(ptr noundef nonnull %19) #10
  br label %l___private_Lean_Environment_0__Lean_VisibilityMap_get___rarg.exit

l___private_Lean_Environment_0__Lean_VisibilityMap_get___rarg.exit: ; preds = %6, %13, %15, %16, %17, %24, %26, %27
  %.0.i = phi ptr [ %8, %16 ], [ %8, %15 ], [ %8, %13 ], [ %8, %6 ], [ %19, %27 ], [ %19, %26 ], [ %19, %24 ], [ %19, %17 ]
  %28 = ptrtoint ptr %1 to i64
  %29 = and i64 %28, 1
  %.not = icmp eq i64 %29, 0
  br i1 %.not, label %30, label %lean_dec.exit5

30:                                               ; preds = %l___private_Lean_Environment_0__Lean_VisibilityMap_get___rarg.exit
  %31 = load i32, ptr %1, align 4, !tbaa !4
  %32 = icmp sgt i32 %31, 1
  br i1 %32, label %33, label %35, !prof !11

33:                                               ; preds = %30
  %34 = add nsw i32 %31, -1
  store i32 %34, ptr %1, align 4, !tbaa !4
  br label %lean_dec.exit5

35:                                               ; preds = %30
  %.not.i = icmp eq i32 %31, 0
  br i1 %.not.i, label %lean_dec.exit5, label %36

36:                                               ; preds = %35
  tail call void @lean_dec_ref_cold(ptr noundef nonnull %1) #10
  br label %lean_dec.exit5

lean_dec.exit5:                                   ; preds = %36, %35, %33, %l___private_Lean_Environment_0__Lean_VisibilityMap_get___rarg.exit
  %37 = ptrtoint ptr %0 to i64
  %38 = and i64 %37, 1
  %.not9 = icmp eq i64 %38, 0
  br i1 %.not9, label %39, label %lean_dec.exit

39:                                               ; preds = %lean_dec.exit5
  %40 = load i32, ptr %0, align 4, !tbaa !4
  %41 = icmp sgt i32 %40, 1
  br i1 %41, label %42, label %44, !prof !11

42:                                               ; preds = %39
  %43 = add nsw i32 %40, -1
  store i32 %43, ptr %0, align 4, !tbaa !4
  br label %lean_dec.exit

44:                                               ; preds = %39
  %.not.i6 = icmp eq i32 %40, 0
  br i1 %.not.i6, label %lean_dec.exit, label %45

45:                                               ; preds = %44
  tail call void @lean_dec_ref_cold(ptr noundef nonnull %0) #10
  br label %lean_dec.exit

lean_dec.exit:                                    ; preds = %45, %44, %42, %lean_dec.exit5
  ret ptr %.0.i
}